target datalayout = "e-m:e-p270:32:32-p271:32:32-p272:64:64-i64:64-i128:128-f80:128-n8:16:32:64-S128"
target triple = "x86_64-pc-linux-gnu"

%struct.darktable_t = type { %struct.dt_codepath_t, i32, i32, ptr, ptr, ptr, ptr, ptr, ptr, ptr, ptr, ptr, ptr, ptr, ptr, ptr, ptr, ptr, ptr, ptr, ptr, ptr, ptr, ptr, ptr, ptr, ptr, ptr, ptr, ptr, [64 x %struct.dt_pthread_mutex_t], %struct.dt_pthread_mutex_t, %struct.dt_pthread_mutex_t, %struct.dt_pthread_mutex_t, %struct.dt_pthread_mutex_t, %struct.dt_pthread_mutex_t, ptr, ptr, ptr, ptr, ptr, ptr, ptr, ptr, ptr, ptr, ptr, ptr, ptr, %struct.dt_lua_state_t, ptr, double, ptr, i32, [47 x i32], i32, i32, ptr, ptr, %struct.dt_sys_resources_t, %struct.dt_backthumb_t, %struct.dt_gimp_t }
%struct.dt_codepath_t = type { i8, [3 x i8] }
%struct.dt_pthread_mutex_t = type { %union.pthread_mutex_t }
%union.pthread_mutex_t = type { %struct.__pthread_mutex_s }
%struct.__pthread_mutex_s = type { i32, i32, i32, i32, i32, i16, i16, %struct.__pthread_internal_list }
%struct.__pthread_internal_list = type { ptr, ptr }
%struct.dt_lua_state_t = type { i32 }
%struct.dt_sys_resources_t = type { i64, i64, ptr, ptr, i32 }
%struct.dt_backthumb_t = type { double, double, i32, i32, i32, i32 }
%struct.dt_gimp_t = type { i32, ptr, ptr, i32, i32 }
%struct.dt_masks_form_gui_t = type { ptr, ptr, ptr, i32, float, float, float, float, float, float, float, float, i32, i32, i32, i32, i32, i32, i32, i32, i32, i32, i32, i32, i32, i32, i32, i32, i32, i32, i32, i32, i32, i32, float, float, i32, i32, i32, i32, i32, i32, ptr, ptr, i32, i32, i64 }
%struct.dt_masks_form_gui_points_t = type { ptr, i32, ptr, i32, ptr, i32, i32 }

@darktable = external global %struct.darktable_t, align 8

; Function Attrs: nounwind uwtable
define internal void @_gradient_events_post_expose(ptr noundef %0, float noundef %1, ptr noundef %2, i32 noundef %3, i32 noundef %4) #0 {
  %6 = alloca ptr, align 8
  %7 = alloca float, align 4
  %8 = alloca ptr, align 8
  %9 = alloca i32, align 4
  %10 = alloca i32, align 4
  %11 = alloca float, align 4
  %12 = alloca float, align 4
  %13 = alloca float, align 4
  %14 = alloca float, align 4
  %15 = alloca float, align 4
  %16 = alloca ptr, align 8
  %17 = alloca i32, align 4
  %18 = alloca ptr, align 8
  %19 = alloca i32, align 4
  %20 = alloca i32, align 4
  %21 = alloca ptr, align 8
  %22 = alloca i32, align 4
  %23 = alloca float, align 4
  %24 = alloca float, align 4
  %25 = alloca i32, align 4
  store ptr %0, ptr %6, align 8, !tbaa !188
  store float %1, ptr %7, align 4, !tbaa !29
  store ptr %2, ptr %8, align 8, !tbaa !17
  store i32 %3, ptr %9, align 4, !tbaa !6
  store i32 %4, ptr %10, align 4, !tbaa !6
  %26 = load ptr, ptr %8, align 8, !tbaa !17
  %27 = getelementptr inbounds nuw %struct.dt_masks_form_gui_t, ptr %26, i32 0, i32 39
  %28 = load i32, ptr %27, align 8, !tbaa !21
  %29 = icmp ne i32 %28, 0
  br i1 %29, label %30, label %102

30:                                               ; preds = %5
  call void @llvm.lifetime.start.p0(i64 4, ptr %11) #11
  store float 0.000000e+00, ptr %11, align 4, !tbaa !29
  call void @llvm.lifetime.start.p0(i64 4, ptr %12) #11
  store float 0.000000e+00, ptr %12, align 4, !tbaa !29
  call void @llvm.lifetime.start.p0(i64 4, ptr %13) #11
  store float 0.000000e+00, ptr %13, align 4, !tbaa !29
  call void @llvm.lifetime.start.p0(i64 4, ptr %14) #11
  store float 0.000000e+00, ptr %14, align 4, !tbaa !29
  call void @llvm.lifetime.start.p0(i64 4, ptr %15) #11
  store float 0.000000e+00, ptr %15, align 4, !tbaa !29
  %31 = load float, ptr %7, align 4, !tbaa !29
  %32 = load ptr, ptr %8, align 8, !tbaa !17
  %33 = load ptr, ptr %8, align 8, !tbaa !17
  %34 = getelementptr inbounds nuw %struct.dt_masks_form_gui_t, ptr %33, i32 0, i32 4
  %35 = load float, ptr %34, align 4, !tbaa !145
  %36 = load ptr, ptr %8, align 8, !tbaa !17
  %37 = getelementptr inbounds nuw %struct.dt_masks_form_gui_t, ptr %36, i32 0, i32 5
  %38 = load float, ptr %37, align 8, !tbaa !146
  %39 = load ptr, ptr %8, align 8, !tbaa !17
  %40 = getelementptr inbounds nuw %struct.dt_masks_form_gui_t, ptr %39, i32 0, i32 4
  %41 = load float, ptr %40, align 4, !tbaa !145
  %42 = load ptr, ptr %8, align 8, !tbaa !17
  %43 = getelementptr inbounds nuw %struct.dt_masks_form_gui_t, ptr %42, i32 0, i32 5
  %44 = load float, ptr %43, align 8, !tbaa !146
  call void @_gradient_init_values(float noundef %31, ptr noundef %32, float noundef %35, float noundef %38, float noundef %41, float noundef %44, ptr noundef %11, ptr noundef %12, ptr noundef %13, ptr noundef %14, ptr noundef %15)
  call void @llvm.lifetime.start.p0(i64 8, ptr %16) #11
  store ptr null, ptr %16, align 8, !tbaa !30
  call void @llvm.lifetime.start.p0(i64 4, ptr %17) #11
  store i32 0, ptr %17, align 4, !tbaa !6
  call void @llvm.lifetime.start.p0(i64 8, ptr %18) #11
  store ptr null, ptr %18, align 8, !tbaa !30
  call void @llvm.lifetime.start.p0(i64 4, ptr %19) #11
  store i32 0, ptr %19, align 4, !tbaa !6
  call void @llvm.lifetime.start.p0(i64 4, ptr %20) #11
  %45 = load ptr, ptr getelementptr inbounds nuw (%struct.darktable_t, ptr @darktable, i32 0, i32 9), align 8, !tbaa !143
  %46 = load float, ptr %11, align 4, !tbaa !29
  %47 = load float, ptr %12, align 4, !tbaa !29
  %48 = load float, ptr %13, align 4, !tbaa !29
  %49 = load float, ptr %15, align 4, !tbaa !29
  %50 = call i32 @_gradient_get_points(ptr noundef %45, float noundef %46, float noundef %47, float noundef %48, float noundef %49, ptr noundef %16, ptr noundef %17)
  store i32 %50, ptr %20, align 4, !tbaa !6
  %51 = load i32, ptr %20, align 4, !tbaa !6
  %52 = icmp ne i32 %51, 0
  br i1 %52, label %53, label %65

53:                                               ; preds = %30
  %54 = load float, ptr %14, align 4, !tbaa !29
  %55 = fpext reassoc nsz arcp contract afn float %54 to double
  %56 = fcmp reassoc nsz arcp contract afn ogt double %55, 0.000000e+00
  br i1 %56, label %57, label %65

57:                                               ; preds = %53
  %58 = load ptr, ptr getelementptr inbounds nuw (%struct.darktable_t, ptr @darktable, i32 0, i32 9), align 8, !tbaa !143
  %59 = load float, ptr %11, align 4, !tbaa !29
  %60 = load float, ptr %12, align 4, !tbaa !29
  %61 = load float, ptr %13, align 4, !tbaa !29
  %62 = load float, ptr %14, align 4, !tbaa !29
  %63 = load float, ptr %15, align 4, !tbaa !29
  %64 = call i32 @_gradient_get_pts_border(ptr noundef %58, float noundef %59, float noundef %60, float noundef %61, float noundef %62, float noundef %63, ptr noundef %18, ptr noundef %19)
  store i32 %64, ptr %20, align 4, !tbaa !6
  br label %65

65:                                               ; preds = %57, %53, %30
  %66 = load ptr, ptr %6, align 8, !tbaa !188
  call void @cairo_save(ptr noundef %66)
  %67 = load ptr, ptr %6, align 8, !tbaa !188
  %68 = load float, ptr %7, align 4, !tbaa !29
  %69 = load ptr, ptr %16, align 8, !tbaa !30
  %70 = load i32, ptr %17, align 4, !tbaa !6
  %71 = load ptr, ptr %16, align 8, !tbaa !30
  %72 = getelementptr inbounds float, ptr %71, i64 0
  %73 = load float, ptr %72, align 4, !tbaa !29
  %74 = load ptr, ptr %16, align 8, !tbaa !30
  %75 = getelementptr inbounds float, ptr %74, i64 1
  %76 = load float, ptr %75, align 4, !tbaa !29
  call void @_gradient_draw_lines(i32 noundef 0, ptr noundef %67, i32 noundef 0, float noundef %68, ptr noundef %69, i32 noundef %70, float noundef %73, float noundef %76)
  %77 = load ptr, ptr %6, align 8, !tbaa !188
  %78 = load float, ptr %7, align 4, !tbaa !29
  %79 = load ptr, ptr %18, align 8, !tbaa !30
  %80 = load i32, ptr %19, align 4, !tbaa !6
  %81 = load ptr, ptr %16, align 8, !tbaa !30
  %82 = getelementptr inbounds float, ptr %81, i64 0
  %83 = load float, ptr %82, align 4, !tbaa !29
  %84 = load ptr, ptr %16, align 8, !tbaa !30
  %85 = getelementptr inbounds float, ptr %84, i64 1
  %86 = load float, ptr %85, align 4, !tbaa !29
  call void @_gradient_draw_lines(i32 noundef 1, ptr noundef %77, i32 noundef 0, float noundef %78, ptr noundef %79, i32 noundef %80, float noundef %83, float noundef %86)
  %87 = load ptr, ptr %6, align 8, !tbaa !188
  %88 = load float, ptr %7, align 4, !tbaa !29
  %89 = load ptr, ptr %16, align 8, !tbaa !30
  %90 = load i32, ptr %17, align 4, !tbaa !6
  call void @_gradient_draw_arrow(ptr noundef %87, i32 noundef 0, i32 noundef 0, float noundef %88, ptr noundef %89, i32 noundef %90)
  %91 = load ptr, ptr %6, align 8, !tbaa !188
  call void @cairo_restore(ptr noundef %91)
  %92 = load ptr, ptr %16, align 8, !tbaa !30
  %93 = icmp ne ptr %92, null
  br i1 %93, label %94, label %96

94:                                               ; preds = %65
  %95 = load ptr, ptr %16, align 8, !tbaa !30
  call void @free(ptr noundef %95) #11
  br label %96

96:                                               ; preds = %94, %65
  %97 = load ptr, ptr %18, align 8, !tbaa !30
  %98 = icmp ne ptr %97, null
  br i1 %98, label %99, label %101

99:                                               ; preds = %96
  %100 = load ptr, ptr %18, align 8, !tbaa !30
  call void @free(ptr noundef %100) #11
  br label %101

101:                                              ; preds = %99, %96
  call void @llvm.lifetime.end.p0(i64 4, ptr %20) #11
  call void @llvm.lifetime.end.p0(i64 4, ptr %19) #11
  call void @llvm.lifetime.end.p0(i64 8, ptr %18) #11
  call void @llvm.lifetime.end.p0(i64 4, ptr %17) #11
  call void @llvm.lifetime.end.p0(i64 8, ptr %16) #11
  call void @llvm.lifetime.end.p0(i64 4, ptr %15) #11
  call void @llvm.lifetime.end.p0(i64 4, ptr %14) #11
  call void @llvm.lifetime.end.p0(i64 4, ptr %13) #11
  call void @llvm.lifetime.end.p0(i64 4, ptr %12) #11
  call void @llvm.lifetime.end.p0(i64 4, ptr %11) #11
  br label %202

102:                                              ; preds = %5
  call void @llvm.lifetime.start.p0(i64 8, ptr %21) #11
  %103 = load ptr, ptr %8, align 8, !tbaa !17
  %104 = getelementptr inbounds nuw %struct.dt_masks_form_gui_t, ptr %103, i32 0, i32 0
  %105 = load ptr, ptr %104, align 8, !tbaa !50
  %106 = load i32, ptr %9, align 4, !tbaa !6
  %107 = call ptr @g_list_nth_data(ptr noundef %105, i32 noundef %106)
  store ptr %107, ptr %21, align 8, !tbaa !51
  %108 = load ptr, ptr %21, align 8, !tbaa !51
  %109 = icmp ne ptr %108, null
  br i1 %109, label %111, label %110

110:                                              ; preds = %102
  store i32 1, ptr %22, align 4
  br label %200

111:                                              ; preds = %102
  call void @llvm.lifetime.start.p0(i64 4, ptr %23) #11
  %112 = load ptr, ptr %21, align 8, !tbaa !51
  %113 = getelementptr inbounds nuw %struct.dt_masks_form_gui_points_t, ptr %112, i32 0, i32 0
  %114 = load ptr, ptr %113, align 8, !tbaa !53
  %115 = getelementptr inbounds float, ptr %114, i64 0
  %116 = load float, ptr %115, align 4, !tbaa !29
  store float %116, ptr %23, align 4, !tbaa !29
  call void @llvm.lifetime.start.p0(i64 4, ptr %24) #11
  %117 = load ptr, ptr %21, align 8, !tbaa !51
  %118 = getelementptr inbounds nuw %struct.dt_masks_form_gui_points_t, ptr %117, i32 0, i32 0
  %119 = load ptr, ptr %118, align 8, !tbaa !53
  %120 = getelementptr inbounds float, ptr %119, i64 1
  %121 = load float, ptr %120, align 4, !tbaa !29
  store float %121, ptr %24, align 4, !tbaa !29
  call void @llvm.lifetime.start.p0(i64 4, ptr %25) #11
  %122 = load ptr, ptr %8, align 8, !tbaa !17
  %123 = getelementptr inbounds nuw %struct.dt_masks_form_gui_t, ptr %122, i32 0, i32 37
  %124 = load i32, ptr %123, align 8, !tbaa !190
  %125 = load i32, ptr %9, align 4, !tbaa !6
  %126 = icmp eq i32 %124, %125
  br i1 %126, label %127, label %139

127:                                              ; preds = %111
  %128 = load ptr, ptr %8, align 8, !tbaa !17
  %129 = getelementptr inbounds nuw %struct.dt_masks_form_gui_t, ptr %128, i32 0, i32 12
  %130 = load i32, ptr %129, align 4, !tbaa !27
  %131 = icmp ne i32 %130, 0
  br i1 %131, label %137, label %132

132:                                              ; preds = %127
  %133 = load ptr, ptr %8, align 8, !tbaa !17
  %134 = getelementptr inbounds nuw %struct.dt_masks_form_gui_t, ptr %133, i32 0, i32 24
  %135 = load i32, ptr %134, align 4, !tbaa !140
  %136 = icmp ne i32 %135, 0
  br label %137

137:                                              ; preds = %132, %127
  %138 = phi i1 [ true, %127 ], [ %136, %132 ]
  br label %139

139:                                              ; preds = %137, %111
  %140 = phi i1 [ false, %111 ], [ %138, %137 ]
  %141 = zext i1 %140 to i32
  store i32 %141, ptr %25, align 4, !tbaa !6
  %142 = load ptr, ptr %6, align 8, !tbaa !188
  %143 = load i32, ptr %25, align 4, !tbaa !6
  %144 = load float, ptr %7, align 4, !tbaa !29
  %145 = load ptr, ptr %21, align 8, !tbaa !51
  %146 = getelementptr inbounds nuw %struct.dt_masks_form_gui_points_t, ptr %145, i32 0, i32 0
  %147 = load ptr, ptr %146, align 8, !tbaa !53
  %148 = load ptr, ptr %21, align 8, !tbaa !51
  %149 = getelementptr inbounds nuw %struct.dt_masks_form_gui_points_t, ptr %148, i32 0, i32 1
  %150 = load i32, ptr %149, align 8, !tbaa !57
  %151 = load float, ptr %23, align 4, !tbaa !29
  %152 = load float, ptr %24, align 4, !tbaa !29
  call void @_gradient_draw_lines(i32 noundef 0, ptr noundef %142, i32 noundef %143, float noundef %144, ptr noundef %147, i32 noundef %150, float noundef %151, float noundef %152)
  %153 = load ptr, ptr %8, align 8, !tbaa !17
  %154 = getelementptr inbounds nuw %struct.dt_masks_form_gui_t, ptr %153, i32 0, i32 38
  %155 = load i32, ptr %154, align 4, !tbaa !191
  %156 = icmp ne i32 %155, 0
  br i1 %156, label %163, label %157

157:                                              ; preds = %139
  %158 = load ptr, ptr %8, align 8, !tbaa !17
  %159 = getelementptr inbounds nuw %struct.dt_masks_form_gui_t, ptr %158, i32 0, i32 37
  %160 = load i32, ptr %159, align 8, !tbaa !190
  %161 = load i32, ptr %9, align 4, !tbaa !6
  %162 = icmp eq i32 %160, %161
  br i1 %162, label %163, label %177

163:                                              ; preds = %157, %139
  %164 = load ptr, ptr %6, align 8, !tbaa !188
  %165 = load ptr, ptr %8, align 8, !tbaa !17
  %166 = getelementptr inbounds nuw %struct.dt_masks_form_gui_t, ptr %165, i32 0, i32 13
  %167 = load i32, ptr %166, align 8, !tbaa !147
  %168 = load float, ptr %7, align 4, !tbaa !29
  %169 = load ptr, ptr %21, align 8, !tbaa !51
  %170 = getelementptr inbounds nuw %struct.dt_masks_form_gui_points_t, ptr %169, i32 0, i32 2
  %171 = load ptr, ptr %170, align 8, !tbaa !56
  %172 = load ptr, ptr %21, align 8, !tbaa !51
  %173 = getelementptr inbounds nuw %struct.dt_masks_form_gui_points_t, ptr %172, i32 0, i32 3
  %174 = load i32, ptr %173, align 8, !tbaa !55
  %175 = load float, ptr %23, align 4, !tbaa !29
  %176 = load float, ptr %24, align 4, !tbaa !29
  call void @_gradient_draw_lines(i32 noundef 1, ptr noundef %164, i32 noundef %167, float noundef %168, ptr noundef %171, i32 noundef %174, float noundef %175, float noundef %176)
  br label %177

177:                                              ; preds = %163, %157
  %178 = load ptr, ptr %6, align 8, !tbaa !188
  %179 = load i32, ptr %25, align 4, !tbaa !6
  %180 = load ptr, ptr %8, align 8, !tbaa !17
  %181 = getelementptr inbounds nuw %struct.dt_masks_form_gui_t, ptr %180, i32 0, i32 37
  %182 = load i32, ptr %181, align 8, !tbaa !190
  %183 = load i32, ptr %9, align 4, !tbaa !6
  %184 = icmp eq i32 %182, %183
  br i1 %184, label %185, label %190

185:                                              ; preds = %177
  %186 = load ptr, ptr %8, align 8, !tbaa !17
  %187 = getelementptr inbounds nuw %struct.dt_masks_form_gui_t, ptr %186, i32 0, i32 13
  %188 = load i32, ptr %187, align 8, !tbaa !147
  %189 = icmp ne i32 %188, 0
  br label %190

190:                                              ; preds = %185, %177
  %191 = phi i1 [ false, %177 ], [ %189, %185 ]
  %192 = zext i1 %191 to i32
  %193 = load float, ptr %7, align 4, !tbaa !29
  %194 = load ptr, ptr %21, align 8, !tbaa !51
  %195 = getelementptr inbounds nuw %struct.dt_masks_form_gui_points_t, ptr %194, i32 0, i32 0
  %196 = load ptr, ptr %195, align 8, !tbaa !53
  %197 = load ptr, ptr %21, align 8, !tbaa !51
  %198 = getelementptr inbounds nuw %struct.dt_masks_form_gui_points_t, ptr %197, i32 0, i32 1
  %199 = load i32, ptr %198, align 8, !tbaa !57
  call void @_gradient_draw_arrow(ptr noundef %178, i32 noundef %179, i32 noundef %192, float noundef %193, ptr noundef %196, i32 noundef %199)
  call void @llvm.lifetime.end.p0(i64 4, ptr %25) #11
  call void @llvm.lifetime.end.p0(i64 4, ptr %24) #11
  call void @llvm.lifetime.end.p0(i64 4, ptr %23) #11
  store i32 0, ptr %22, align 4
  br label %200

200:                                              ; preds = %190, %110
  call void @llvm.lifetime.end.p0(i64 8, ptr %21) #11
  %201 = load i32, ptr %22, align 4
  switch i32 %201, label %203 [
    i32 0, label %202
    i32 1, label %202
  ]

202:                                              ; preds = %101, %200, %200
  ret void

203:                                              ; preds = %200
  unreachable
}