; Function Attrs: nounwind uwtable
define internal void @_gradient_events_post_expose(ptr noundef %0, float noundef %1, ptr noundef readonly captures(none) %2, i32 noundef %3, i32 %4) #0 {
  %6 = alloca float, align 4
  %7 = alloca float, align 4
  %8 = alloca float, align 4
  %9 = alloca float, align 4
  %10 = alloca float, align 4
  %11 = alloca ptr, align 8
  %12 = alloca i32, align 4
  %13 = alloca ptr, align 8
  %14 = alloca i32, align 4
  %15 = getelementptr inbounds nuw i8, ptr %2, i64 168
  %16 = load i32, ptr %15, align 8, !tbaa !6
  %.not = icmp eq i32 %16, 0
  br i1 %.not, label %41, label %17

17:                                               ; preds = %5
  call void @llvm.lifetime.start.p0(i64 4, ptr nonnull %6) #13
  call void @llvm.lifetime.start.p0(i64 4, ptr nonnull %7) #13
  call void @llvm.lifetime.start.p0(i64 4, ptr nonnull %8) #13
  call void @llvm.lifetime.start.p0(i64 4, ptr nonnull %9) #13
  call void @llvm.lifetime.start.p0(i64 4, ptr nonnull %10) #13
  %18 = getelementptr inbounds nuw i8, ptr %2, i64 28
  %19 = load float, ptr %18, align 4, !tbaa !145
  %20 = getelementptr inbounds nuw i8, ptr %2, i64 32
  %21 = load float, ptr %20, align 8, !tbaa !146
  call fastcc void @_gradient_init_values(float noundef %1, ptr noundef nonnull %2, float noundef %19, float noundef %21, float noundef %19, float noundef %21, ptr noundef nonnull %6, ptr noundef nonnull %7, ptr noundef nonnull %8, ptr noundef nonnull %9, ptr noundef nonnull %10)
  call void @llvm.lifetime.start.p0(i64 8, ptr nonnull %11) #13
  call void @llvm.lifetime.start.p0(i64 4, ptr nonnull %12) #13
  call void @llvm.lifetime.start.p0(i64 8, ptr nonnull %13) #13
  call void @llvm.lifetime.start.p0(i64 4, ptr nonnull %14) #13
  %22 = load ptr, ptr getelementptr inbounds nuw (i8, ptr @darktable, i64 64), align 8, !tbaa !122
  %23 = load float, ptr %6, align 4, !tbaa !27
  %24 = load float, ptr %7, align 4, !tbaa !27
  %25 = load float, ptr %8, align 4, !tbaa !27
  %26 = load float, ptr %10, align 4, !tbaa !27
  %27 = call fastcc i32 @_gradient_get_points(ptr noundef %22, float noundef %23, float noundef %24, float noundef %25, float noundef %26, ptr noundef nonnull %11, ptr noundef nonnull %12)
  %.not54 = icmp eq i32 %27, 0
  br i1 %.not54, label %34, label %28

28:                                               ; preds = %17
  %29 = load float, ptr %9, align 4, !tbaa !27
  %30 = fcmp reassoc nsz arcp contract afn ogt float %29, 0.000000e+00
  br i1 %30, label %31, label %34

31:                                               ; preds = %28
  %32 = load ptr, ptr getelementptr inbounds nuw (i8, ptr @darktable, i64 64), align 8, !tbaa !122
  %33 = call fastcc i32 @_gradient_get_pts_border(ptr noundef %32, float noundef %23, float noundef %24, float noundef %25, float noundef %29, float noundef %26, ptr noundef %13, ptr noundef nonnull %14)
  %.pre = load ptr, ptr %13, align 8, !tbaa !115
  %.pre57 = load i32, ptr %14, align 4, !tbaa !30
  br label %34

34:                                               ; preds = %31, %28, %17
  %35 = phi i32 [ %.pre57, %31 ], [ 0, %28 ], [ 0, %17 ]
  %36 = phi ptr [ %.pre, %31 ], [ null, %28 ], [ null, %17 ]
  tail call void @cairo_save(ptr noundef %0) #13
  %37 = load ptr, ptr %11, align 8, !tbaa !115
  %38 = load i32, ptr %12, align 4, !tbaa !30
  tail call fastcc void @_gradient_draw_lines(i32 noundef 0, ptr noundef %0, i32 noundef 0, float noundef %1, ptr noundef nonnull %37, i32 noundef %38)
  tail call fastcc void @_gradient_draw_lines(i32 noundef 1, ptr noundef %0, i32 noundef 0, float noundef %1, ptr noundef %36, i32 noundef %35)
  tail call fastcc void @_gradient_draw_arrow(ptr noundef %0, i32 noundef 0, float noundef %1, ptr noundef nonnull %37, i32 noundef %38)
  tail call void @cairo_restore(ptr noundef %0) #13
  tail call void @free(ptr noundef %37) #13
  %.not56 = icmp eq ptr %36, null
  br i1 %.not56, label %40, label %39

39:                                               ; preds = %34
  tail call void @free(ptr noundef nonnull %36) #13
  br label %40

40:                                               ; preds = %39, %34
  call void @llvm.lifetime.end.p0(i64 4, ptr nonnull %14) #13
  call void @llvm.lifetime.end.p0(i64 8, ptr nonnull %13) #13
  call void @llvm.lifetime.end.p0(i64 4, ptr nonnull %12) #13
  call void @llvm.lifetime.end.p0(i64 8, ptr nonnull %11) #13
  call void @llvm.lifetime.end.p0(i64 4, ptr nonnull %10) #13
  call void @llvm.lifetime.end.p0(i64 4, ptr nonnull %9) #13
  call void @llvm.lifetime.end.p0(i64 4, ptr nonnull %8) #13
  call void @llvm.lifetime.end.p0(i64 4, ptr nonnull %7) #13
  call void @llvm.lifetime.end.p0(i64 4, ptr nonnull %6) #13
  br label %76

41:                                               ; preds = %5
  %42 = load ptr, ptr %2, align 8, !tbaa !32
  %43 = tail call ptr @g_list_nth_data(ptr noundef %42, i32 noundef %3) #13
  %.not51 = icmp eq ptr %43, null
  br i1 %.not51, label %76, label %44

44:                                               ; preds = %41
  %45 = load ptr, ptr %43, align 8, !tbaa !33
  %46 = getelementptr inbounds nuw i8, ptr %2, i64 160
  %47 = load i32, ptr %46, align 8, !tbaa !176
  %48 = icmp eq i32 %47, %3
  br i1 %48, label %49, label %57

49:                                               ; preds = %44
  %50 = getelementptr inbounds nuw i8, ptr %2, i64 60
  %51 = load i32, ptr %50, align 4, !tbaa !17
  %.not52 = icmp eq i32 %51, 0
  br i1 %.not52, label %52, label %57

52:                                               ; preds = %49
  %53 = getelementptr inbounds nuw i8, ptr %2, i64 108
  %54 = load i32, ptr %53, align 4, !tbaa !121
  %55 = icmp ne i32 %54, 0
  %56 = zext i1 %55 to i32
  br label %57

57:                                               ; preds = %49, %52, %44
  %58 = phi i32 [ 0, %44 ], [ 1, %49 ], [ %56, %52 ]
  %59 = getelementptr inbounds nuw i8, ptr %43, i64 8
  %60 = load i32, ptr %59, align 8, !tbaa !38
  tail call fastcc void @_gradient_draw_lines(i32 noundef 0, ptr noundef %0, i32 noundef %58, float noundef %1, ptr noundef nonnull %45, i32 noundef %60)
  %61 = getelementptr inbounds nuw i8, ptr %2, i64 164
  %62 = load i32, ptr %61, align 4, !tbaa !177
  %.not53 = icmp eq i32 %62, 0
  br i1 %.not53, label %63, label %66

63:                                               ; preds = %57
  %64 = load i32, ptr %46, align 8, !tbaa !176
  %65 = icmp eq i32 %64, %3
  br i1 %65, label %66, label %73

66:                                               ; preds = %63, %57
  %67 = getelementptr inbounds nuw i8, ptr %2, i64 64
  %68 = load i32, ptr %67, align 8, !tbaa !153
  %69 = getelementptr inbounds nuw i8, ptr %43, i64 16
  %70 = load ptr, ptr %69, align 8, !tbaa !37
  %71 = getelementptr inbounds nuw i8, ptr %43, i64 24
  %72 = load i32, ptr %71, align 8, !tbaa !36
  tail call fastcc void @_gradient_draw_lines(i32 noundef 1, ptr noundef %0, i32 noundef %68, float noundef %1, ptr noundef %70, i32 noundef %72)
  br label %73

73:                                               ; preds = %66, %63
  %74 = load ptr, ptr %43, align 8, !tbaa !33
  %75 = load i32, ptr %59, align 8, !tbaa !38
  tail call fastcc void @_gradient_draw_arrow(ptr noundef %0, i32 noundef %58, float noundef %1, ptr noundef %74, i32 noundef %75)
  br label %76

76:                                               ; preds = %73, %41, %40
  ret void
}